; Function Attrs: nounwind uwtable
define ptr @Gia_ManCleanupOutputs(ptr noundef %0, i32 noundef %1) local_unnamed_addr #1 {
  %3 = tail call i32 @Gia_ManCombMarkUsed(ptr noundef %0)
  %4 = getelementptr inbounds nuw i8, ptr %0, i64 72
  %5 = load ptr, ptr %4, align 8, !tbaa !37
  %6 = getelementptr i8, ptr %5, i64 4
  %.val12 = load i32, ptr %6, align 4, !tbaa !38
  %7 = icmp sgt i32 %.val12, 0
  br i1 %7, label %.lr.ph, label %.critedge

.lr.ph:                                           ; preds = %2
  %8 = getelementptr i8, ptr %0, i64 32
  %9 = sext i32 %1 to i64
  br label %10

10:                                               ; preds = %.lr.ph, %13
  %indvars.iv = phi i64 [ 0, %.lr.ph ], [ %indvars.iv.next, %13 ]
  %11 = phi ptr [ %5, %.lr.ph ], [ %21, %13 ]
  %.val10 = load ptr, ptr %8, align 8, !tbaa !28
  %.not = icmp ne ptr %.val10, null
  %12 = icmp slt i64 %indvars.iv, %9
  %or.cond = and i1 %12, %.not
  br i1 %or.cond, label %13, label %.critedge

13:                                               ; preds = %10
  %14 = getelementptr i8, ptr %11, i64 8
  %.val11.val = load ptr, ptr %14, align 8, !tbaa !39
  %15 = getelementptr inbounds nuw i32, ptr %.val11.val, i64 %indvars.iv
  %16 = load i32, ptr %15, align 4, !tbaa !29
  %17 = sext i32 %16 to i64
  %18 = getelementptr inbounds %struct.Gia_Obj_t_, ptr %.val10, i64 %17
  %19 = load i64, ptr %18, align 4
  %20 = or i64 %19, 1073741824
  store i64 %20, ptr %18, align 4
  %indvars.iv.next = add nuw nsw i64 %indvars.iv, 1
  %21 = load ptr, ptr %4, align 8, !tbaa !37
  %22 = getelementptr i8, ptr %21, i64 4
  %.val = load i32, ptr %22, align 4, !tbaa !38
  %23 = sext i32 %.val to i64
  %24 = icmp slt i64 %indvars.iv.next, %23
  br i1 %24, label %10, label %.critedge, !llvm.loop !41

.critedge:                                        ; preds = %10, %13, %2
  %25 = tail call ptr @Gia_ManDupMarked(ptr noundef nonnull %0) #8
  ret ptr %25
}